; Function Attrs: mustprogress uwtable
define internal void @_ZN7Imf_3_212_GLOBAL__N_110PtrIStream5seekgEm(ptr nocapture noundef nonnull align 8 dereferenceable(64) %this, i64 noundef %pos) unnamed_addr #3 align 2 personality ptr @__gxx_personality_v0 {
entry:
  %_iex_throw_s14 = alloca %"class.std::__cxx11::basic_stringstream", align 8
  %base = getelementptr inbounds i8, ptr %this, i64 40
  %0 = load ptr, ptr %base, align 8
  %add.ptr8 = getelementptr inbounds i8, ptr %0, i64 %pos
  %cmp10 = icmp slt i64 %pos, 0
  %end = getelementptr inbounds i8, ptr %this, i64 56
  %1 = load ptr, ptr %end, align 8
  %cmp11 = icmp ugt ptr %add.ptr8, %1
  %or.cond = select i1 %cmp10, i1 true, i1 %cmp11
  br i1 %or.cond, label %do.body13, label %if.end25

do.body13:                                        ; preds = %entry
  tail call void @_Z13iex_debugTrapv()
  call void @_ZNSt7__cxx1118basic_stringstreamIcSt11char_traitsIcESaIcEEC1Ev(ptr noundef nonnull align 8 dereferenceable(128) %_iex_throw_s14)
  %add.ptr15 = getelementptr inbounds i8, ptr %_iex_throw_s14, i64 16
  %call18 = invoke noundef nonnull align 8 dereferenceable(8) ptr @_ZStlsISt11char_traitsIcEERSt13basic_ostreamIcT_ES5_PKc(ptr noundef nonnull align 8 dereferenceable(8) %add.ptr15, ptr noundef nonnull @.str.19)
          to label %invoke.cont17 unwind label %lpad16

invoke.cont17:                                    ; preds = %do.body13
  %exception19 = call ptr @__cxa_allocate_exception(i64 72) #22
  invoke void @_ZN7Iex_3_28InputExcC1ERNSt7__cxx1118basic_stringstreamIcSt11char_traitsIcESaIcEEE(ptr noundef nonnull align 8 dereferenceable(72) %exception19, ptr noundef nonnull align 8 dereferenceable(128) %_iex_throw_s14)
          to label %invoke.cont21 unwind label %lpad20

invoke.cont21:                                    ; preds = %invoke.cont17
  invoke void @__cxa_throw(ptr nonnull %exception19, ptr nonnull @_ZTIN7Iex_3_28InputExcE, ptr nonnull @_ZN7Iex_3_28InputExcD1Ev) #25
          to label %unreachable unwind label %lpad16

lpad16:                                           ; preds = %invoke.cont21, %do.body13
  %2 = landingpad { ptr, i32 }
          cleanup
  br label %ehcleanup23

lpad20:                                           ; preds = %invoke.cont17
  %3 = landingpad { ptr, i32 }
          cleanup
  call void @__cxa_free_exception(ptr %exception19) #22
  br label %ehcleanup23

ehcleanup23:                                      ; preds = %lpad20, %lpad16
  %.pn = phi { ptr, i32 } [ %2, %lpad16 ], [ %3, %lpad20 ]
  call void @_ZNSt7__cxx1118basic_stringstreamIcSt11char_traitsIcESaIcEED1Ev(ptr noundef nonnull align 8 dereferenceable(128) %_iex_throw_s14) #22
  resume { ptr, i32 } %.pn

if.end25:                                         ; preds = %entry
  %current = getelementptr inbounds i8, ptr %this, i64 48
  store ptr %add.ptr8, ptr %current, align 8
  ret void

unreachable:                                      ; preds = %invoke.cont21
  unreachable
}